; ModuleID = '7/1064.c'
source_filename = "7/1064.c"
target datalayout = "e-m:e-p270:32:32-p271:32:32-p272:64:64-i64:64-f80:128-n8:16:32:64-S128"
target triple = "x86_64-pc-linux-gnu"

; Function Attrs: noinline nounwind uwtable
define dso_local i32 @main() #0 {
  %1 = alloca i32, align 4
  %2 = alloca i32, align 4
  %3 = alloca i32, align 4
  %4 = alloca i32, align 4
  %5 = alloca i32, align 4
  %6 = alloca i32, align 4
  %7 = alloca i32, align 4
  %8 = alloca [300 x i8], align 16
  %9 = alloca [300 x i8], align 16
  %10 = alloca [300 x i8], align 16
  store i32 0, i32* %1, align 4
  %11 = getelementptr inbounds [300 x i8], [300 x i8]* %8, i64 0, i64 0
  %12 = call i32 (i8*, ...) bitcast (i32 (...)* @gets to i32 (i8*, ...)*)(i8* %11)
  %13 = getelementptr inbounds [300 x i8], [300 x i8]* %9, i64 0, i64 0
  %14 = call i32 (i8*, ...) bitcast (i32 (...)* @gets to i32 (i8*, ...)*)(i8* %13)
  %15 = getelementptr inbounds [300 x i8], [300 x i8]* %10, i64 0, i64 0
  %16 = call i32 (i8*, ...) bitcast (i32 (...)* @gets to i32 (i8*, ...)*)(i8* %15)
  %17 = getelementptr inbounds [300 x i8], [300 x i8]* %8, i64 0, i64 0
  %18 = call i64 @strlen(i8* %17) #3
  %19 = trunc i64 %18 to i32
  store i32 %19, i32* %7, align 4
  %20 = getelementptr inbounds [300 x i8], [300 x i8]* %9, i64 0, i64 0
  %21 = call i64 @strlen(i8* %20) #3
  %22 = trunc i64 %21 to i32
  store i32 %22, i32* %6, align 4
  %23 = getelementptr inbounds [300 x i8], [300 x i8]* %10, i64 0, i64 0
  %24 = call i64 @strlen(i8* %23) #3
  %25 = trunc i64 %24 to i32
  store i32 %25, i32* %5, align 4
  store i32 0, i32* %2, align 4
  br label %26

26:                                               ; preds = %64, %0
  %27 = load i32, i32* %2, align 4
  %28 = load i32, i32* %7, align 4
  %29 = load i32, i32* %6, align 4
  %30 = sub nsw i32 %28, %29
  %31 = icmp sle i32 %27, %30
  br i1 %31, label %32, label %67

32:                                               ; preds = %26
  store i32 0, i32* %3, align 4
  %33 = load i32, i32* %2, align 4
  store i32 %33, i32* %4, align 4
  br label %34

34:                                               ; preds = %55, %32
  %35 = load i32, i32* %3, align 4
  %36 = load i32, i32* %6, align 4
  %37 = icmp slt i32 %35, %36
  br i1 %37, label %38, label %58

38:                                               ; preds = %34
  %39 = load i32, i32* %4, align 4
  %40 = sext i32 %39 to i64
  %41 = getelementptr inbounds [300 x i8], [300 x i8]* %8, i64 0, i64 %40
  %42 = load i8, i8* %41, align 1
  %43 = sext i8 %42 to i32
  %44 = load i32, i32* %3, align 4
  %45 = sext i32 %44 to i64
  %46 = getelementptr inbounds [300 x i8], [300 x i8]* %9, i64 0, i64 %45
  %47 = load i8, i8* %46, align 1
  %48 = sext i8 %47 to i32
  %49 = icmp eq i32 %43, %48
  br i1 %49, label %50, label %53

50:                                               ; preds = %38
  %51 = load i32, i32* %4, align 4
  %52 = add nsw i32 %51, 1
  store i32 %52, i32* %4, align 4
  br label %54

53:                                               ; preds = %38
  br label %58

54:                                               ; preds = %50
  br label %55

55:                                               ; preds = %54
  %56 = load i32, i32* %3, align 4
  %57 = add nsw i32 %56, 1
  store i32 %57, i32* %3, align 4
  br label %34

58:                                               ; preds = %53, %34
  %59 = load i32, i32* %3, align 4
  %60 = load i32, i32* %6, align 4
  %61 = icmp eq i32 %59, %60
  br i1 %61, label %62, label %63

62:                                               ; preds = %58
  br label %67

63:                                               ; preds = %58
  br label %64

64:                                               ; preds = %63
  %65 = load i32, i32* %2, align 4
  %66 = add nsw i32 %65, 1
  store i32 %66, i32* %2, align 4
  br label %26

67:                                               ; preds = %62, %26
  %68 = load i32, i32* %2, align 4
  %69 = load i32, i32* %7, align 4
  %70 = load i32, i32* %6, align 4
  %71 = sub nsw i32 %69, %70
  %72 = add nsw i32 %71, 1
  %73 = icmp eq i32 %68, %72
  br i1 %73, label %74, label %75

74:                                               ; preds = %67
  br label %124

75:                                               ; preds = %67
  %76 = load i32, i32* %2, align 4
  %77 = load i32, i32* %5, align 4
  %78 = add nsw i32 %76, %77
  store i32 %78, i32* %4, align 4
  br label %79

79:                                               ; preds = %99, %75
  %80 = load i32, i32* %4, align 4
  %81 = load i32, i32* %7, align 4
  %82 = load i32, i32* %5, align 4
  %83 = add nsw i32 %81, %82
  %84 = load i32, i32* %6, align 4
  %85 = sub nsw i32 %83, %84
  %86 = icmp slt i32 %80, %85
  br i1 %86, label %87, label %102

87:                                               ; preds = %79
  %88 = load i32, i32* %4, align 4
  %89 = load i32, i32* %5, align 4
  %90 = sub nsw i32 %88, %89
  %91 = load i32, i32* %6, align 4
  %92 = add nsw i32 %90, %91
  %93 = sext i32 %92 to i64
  %94 = getelementptr inbounds [300 x i8], [300 x i8]* %8, i64 0, i64 %93
  %95 = load i8, i8* %94, align 1
  %96 = load i32, i32* %4, align 4
  %97 = sext i32 %96 to i64
  %98 = getelementptr inbounds [300 x i8], [300 x i8]* %8, i64 0, i64 %97
  store i8 %95, i8* %98, align 1
  br label %99

99:                                               ; preds = %87
  %100 = load i32, i32* %4, align 4
  %101 = add nsw i32 %100, 1
  store i32 %101, i32* %4, align 4
  br label %79

102:                                              ; preds = %79
  %103 = load i32, i32* %2, align 4
  store i32 %103, i32* %3, align 4
  store i32 0, i32* %4, align 4
  br label %104

104:                                              ; preds = %118, %102
  %105 = load i32, i32* %3, align 4
  %106 = load i32, i32* %2, align 4
  %107 = load i32, i32* %5, align 4
  %108 = add nsw i32 %106, %107
  %109 = icmp slt i32 %105, %108
  br i1 %109, label %110, label %123

110:                                              ; preds = %104
  %111 = load i32, i32* %4, align 4
  %112 = sext i32 %111 to i64
  %113 = getelementptr inbounds [300 x i8], [300 x i8]* %10, i64 0, i64 %112
  %114 = load i8, i8* %113, align 1
  %115 = load i32, i32* %3, align 4
  %116 = sext i32 %115 to i64
  %117 = getelementptr inbounds [300 x i8], [300 x i8]* %8, i64 0, i64 %116
  store i8 %114, i8* %117, align 1
  br label %118

118:                                              ; preds = %110
  %119 = load i32, i32* %3, align 4
  %120 = add nsw i32 %119, 1
  store i32 %120, i32* %3, align 4
  %121 = load i32, i32* %4, align 4
  %122 = add nsw i32 %121, 1
  store i32 %122, i32* %4, align 4
  br label %104

123:                                              ; preds = %104
  br label %124

124:                                              ; preds = %123, %74
  %125 = getelementptr inbounds [300 x i8], [300 x i8]* %8, i64 0, i64 0
  %126 = call i32 @puts(i8* %125)
  %127 = call i32 @getchar()
  %128 = call i32 @getchar()
  %129 = call i32 @getchar()
  ret i32 0
}

declare dso_local i32 @gets(...) #1

; Function Attrs: nounwind readonly
declare dso_local i64 @strlen(i8*) #2

declare dso_local i32 @puts(i8*) #1

declare dso_local i32 @getchar() #1


!llvm.module.flags = !{!0}
!llvm.ident = !{!1}

!0 = !{i32 1, !"wchar_size", i32 4}
!1 = !{!"clang version 10.0.0-4ubuntu1 "}
